target datalayout = "e-m:e-p270:32:32-p271:32:32-p272:64:64-i64:64-i128:128-f80:128-n8:16:32:64-S128"
target triple = "x86_64-pc-linux-gnu"

%class.RangeCoder = type { i32, i32, i32, %"struct.RangeCoder::SUBRANGE", ptr }
%"struct.RangeCoder::SUBRANGE" = type { i32, i32, i32 }
%class.SubAllocator = type { i64, [38 x i8], [128 x i8], i8, ptr, ptr, ptr, [38 x %"struct.SubAllocator::RAR_NODE"], ptr, ptr, ptr, ptr }
%"struct.SubAllocator::RAR_NODE" = type { ptr }
%class.ModelPPM = type <{ i8, [25 x [16 x %struct.RARPPM_SEE2_CONTEXT]], %struct.RARPPM_SEE2_CONTEXT, [3 x i8], ptr, ptr, ptr, ptr, i32, i32, i32, i32, i32, i32, [256 x i8], [256 x i8], [256 x i8], [256 x i8], i8, i8, i8, i8, [128 x [64 x i16]], [4 x i8], %class.RangeCoder, %class.SubAllocator }>
%struct.RARPPM_SEE2_CONTEXT = type { i16, i8, i8 }
%class.Unpack = type { ptr, %class.BitInput, %class.Array, %class.Array, %class.Array.0, [4 x i32], i32, i32, i32, i64, i64, i32, i32, %struct.UnpackBlockHeader, %struct.UnpackBlockTables, i64, ptr, %class.FragmentedWindow, i8, i64, i8, i8, i8, i64, i8, [256 x i16], [256 x i16], [256 x i16], [256 x i16], [256 x i8], [256 x i8], [256 x i8], i32, i32, i32, i32, i32, i32, i32, i32, i32, i32, i32, i32, i32, i32, [4 x %struct.DecodeTable], [1028 x i8], i8, i32, i32, i32, [4 x %struct.AudioVariables], i32, i32, %class.ModelPPM, i32, [404 x i8], i32, i8, i8, i8, %class.RarVM, %class.BitInput, %class.Array.1, %class.Array.1, %class.Array.2, i32, i64, i64 }
%class.Array = type { ptr, i64, i64, i64 }
%class.Array.0 = type { ptr, i64, i64, i64 }
%struct.UnpackBlockHeader = type { i32, i32, i32, i32, i8, i8 }
%struct.UnpackBlockTables = type { %struct.DecodeTable, %struct.DecodeTable, %struct.DecodeTable, %struct.DecodeTable, %struct.DecodeTable }
%struct.DecodeTable = type { i32, [16 x i32], [16 x i32], i32, [1024 x i8], [1024 x i16], [306 x i16] }
%class.FragmentedWindow = type { [32 x ptr], [32 x i64] }
%struct.AudioVariables = type { i32, i32, i32, i32, i32, i32, i32, i32, i32, i32, [11 x i32], i32, i32 }
%class.RarVM = type { ptr, [8 x i32] }
%class.BitInput = type { i32, i32, i8, ptr }
%class.Array.1 = type { ptr, i64, i64, i64 }
%class.Array.2 = type { ptr, i64, i64, i64 }

; Function Attrs: mustprogress nounwind uwtable
define linkonce_odr void @_ZN8BitInput7addbitsEj(ptr noundef nonnull align 8 dereferenceable(24) %0, i32 noundef %1) #1 comdat align 2 {
  %3 = alloca ptr, align 8
  %4 = alloca i32, align 4
  store ptr %0, ptr %3, align 8
  store i32 %1, ptr %4, align 4
  %5 = load ptr, ptr %3, align 8
  %6 = getelementptr inbounds %class.BitInput, ptr %5, i32 0, i32 1
  %7 = load i32, ptr %6, align 4
  %8 = load i32, ptr %4, align 4
  %9 = add i32 %8, %7
  store i32 %9, ptr %4, align 4
  %10 = load i32, ptr %4, align 4
  %11 = lshr i32 %10, 3
  %12 = getelementptr inbounds %class.BitInput, ptr %5, i32 0, i32 0
  %13 = load i32, ptr %12, align 8
  %14 = add i32 %13, %11
  store i32 %14, ptr %12, align 8
  %15 = load i32, ptr %4, align 4
  %16 = and i32 %15, 7
  %17 = getelementptr inbounds %class.BitInput, ptr %5, i32 0, i32 1
  store i32 %16, ptr %17, align 4
  ret void
}

; Function Attrs: mustprogress uwtable
define noundef zeroext i1 @_ZN6Unpack10UnpReadBufEv(ptr noundef nonnull align 8 dereferenceable(59688) %0) #0 align 2 {
  %2 = alloca i1, align 1
  %3 = alloca ptr, align 8
  %4 = alloca i32, align 4
  %5 = alloca i32, align 4
  store ptr %0, ptr %3, align 8
  %6 = load ptr, ptr %3, align 8
  %7 = getelementptr inbounds %class.Unpack, ptr %6, i32 0, i32 11
  %8 = load i32, ptr %7, align 8
  %9 = getelementptr inbounds %class.Unpack, ptr %6, i32 0, i32 1
  %10 = getelementptr inbounds %class.BitInput, ptr %9, i32 0, i32 0
  %11 = load i32, ptr %10, align 8
  %12 = sub nsw i32 %8, %11
  store i32 %12, ptr %4, align 4
  %13 = load i32, ptr %4, align 4
  %14 = icmp slt i32 %13, 0
  br i1 %14, label %15, label %16

15:                                               ; preds = %1
  store i1 false, ptr %2, align 1
  br label %125

16:                                               ; preds = %1
  %17 = getelementptr inbounds %class.Unpack, ptr %6, i32 0, i32 1
  %18 = getelementptr inbounds %class.BitInput, ptr %17, i32 0, i32 0
  %19 = load i32, ptr %18, align 8
  %20 = getelementptr inbounds %class.Unpack, ptr %6, i32 0, i32 13
  %21 = getelementptr inbounds %struct.UnpackBlockHeader, ptr %20, i32 0, i32 2
  %22 = load i32, ptr %21, align 8
  %23 = sub nsw i32 %19, %22
  %24 = getelementptr inbounds %class.Unpack, ptr %6, i32 0, i32 13
  %25 = getelementptr inbounds %struct.UnpackBlockHeader, ptr %24, i32 0, i32 0
  %26 = load i32, ptr %25, align 8
  %27 = sub nsw i32 %26, %23
  store i32 %27, ptr %25, align 8
  %28 = getelementptr inbounds %class.Unpack, ptr %6, i32 0, i32 1
  %29 = getelementptr inbounds %class.BitInput, ptr %28, i32 0, i32 0
  %30 = load i32, ptr %29, align 8
  %31 = icmp sgt i32 %30, 16384
  br i1 %31, label %32, label %54

32:                                               ; preds = %16
  %33 = load i32, ptr %4, align 4
  %34 = icmp sgt i32 %33, 0
  br i1 %34, label %35, label %49

35:                                               ; preds = %32
  %36 = getelementptr inbounds %class.Unpack, ptr %6, i32 0, i32 1
  %37 = getelementptr inbounds %class.BitInput, ptr %36, i32 0, i32 3
  %38 = load ptr, ptr %37, align 8
  %39 = getelementptr inbounds %class.Unpack, ptr %6, i32 0, i32 1
  %40 = getelementptr inbounds %class.BitInput, ptr %39, i32 0, i32 3
  %41 = load ptr, ptr %40, align 8
  %42 = getelementptr inbounds %class.Unpack, ptr %6, i32 0, i32 1
  %43 = getelementptr inbounds %class.BitInput, ptr %42, i32 0, i32 0
  %44 = load i32, ptr %43, align 8
  %45 = sext i32 %44 to i64
  %46 = getelementptr inbounds i8, ptr %41, i64 %45
  %47 = load i32, ptr %4, align 4
  %48 = sext i32 %47 to i64
  call void @llvm.memmove.p0.p0.i64(ptr align 1 %38, ptr align 1 %46, i64 %48, i1 false)
  br label %49

49:                                               ; preds = %35, %32
  %50 = getelementptr inbounds %class.Unpack, ptr %6, i32 0, i32 1
  %51 = getelementptr inbounds %class.BitInput, ptr %50, i32 0, i32 0
  store i32 0, ptr %51, align 8
  %52 = load i32, ptr %4, align 4
  %53 = getelementptr inbounds %class.Unpack, ptr %6, i32 0, i32 11
  store i32 %52, ptr %53, align 8
  br label %57

54:                                               ; preds = %16
  %55 = getelementptr inbounds %class.Unpack, ptr %6, i32 0, i32 11
  %56 = load i32, ptr %55, align 8
  store i32 %56, ptr %4, align 4
  br label %57

57:                                               ; preds = %54, %49
  store i32 0, ptr %5, align 4
  %58 = load i32, ptr %4, align 4
  %59 = icmp ne i32 32768, %58
  br i1 %59, label %60, label %73

60:                                               ; preds = %57
  %61 = getelementptr inbounds %class.Unpack, ptr %6, i32 0, i32 0
  %62 = load ptr, ptr %61, align 8
  %63 = getelementptr inbounds %class.Unpack, ptr %6, i32 0, i32 1
  %64 = getelementptr inbounds %class.BitInput, ptr %63, i32 0, i32 3
  %65 = load ptr, ptr %64, align 8
  %66 = load i32, ptr %4, align 4
  %67 = sext i32 %66 to i64
  %68 = getelementptr inbounds i8, ptr %65, i64 %67
  %69 = load i32, ptr %4, align 4
  %70 = sub nsw i32 32768, %69
  %71 = sext i32 %70 to i64
  %72 = call noundef i32 @_ZN11ComprDataIO7UnpReadEPhm(ptr noundef nonnull align 8 dereferenceable(266) %62, ptr noundef %68, i64 noundef %71)
  store i32 %72, ptr %5, align 4
  br label %73

73:                                               ; preds = %60, %57
  %74 = load i32, ptr %5, align 4
  %75 = icmp sgt i32 %74, 0
  br i1 %75, label %76, label %81

76:                                               ; preds = %73
  %77 = load i32, ptr %5, align 4
  %78 = getelementptr inbounds %class.Unpack, ptr %6, i32 0, i32 11
  %79 = load i32, ptr %78, align 8
  %80 = add nsw i32 %79, %77
  store i32 %80, ptr %78, align 8
  br label %81

81:                                               ; preds = %76, %73
  %82 = getelementptr inbounds %class.Unpack, ptr %6, i32 0, i32 11
  %83 = load i32, ptr %82, align 8
  %84 = sub nsw i32 %83, 30
  %85 = getelementptr inbounds %class.Unpack, ptr %6, i32 0, i32 12
  store i32 %84, ptr %85, align 4
  %86 = getelementptr inbounds %class.Unpack, ptr %6, i32 0, i32 1
  %87 = getelementptr inbounds %class.BitInput, ptr %86, i32 0, i32 0
  %88 = load i32, ptr %87, align 8
  %89 = getelementptr inbounds %class.Unpack, ptr %6, i32 0, i32 13
  %90 = getelementptr inbounds %struct.UnpackBlockHeader, ptr %89, i32 0, i32 2
  store i32 %88, ptr %90, align 8
  %91 = getelementptr inbounds %class.Unpack, ptr %6, i32 0, i32 13
  %92 = getelementptr inbounds %struct.UnpackBlockHeader, ptr %91, i32 0, i32 0
  %93 = load i32, ptr %92, align 8
  %94 = icmp ne i32 %93, -1
  br i1 %94, label %95, label %122

95:                                               ; preds = %81
  %96 = getelementptr inbounds %class.Unpack, ptr %6, i32 0, i32 12
  %97 = load i32, ptr %96, align 4
  %98 = getelementptr inbounds %class.Unpack, ptr %6, i32 0, i32 13
  %99 = getelementptr inbounds %struct.UnpackBlockHeader, ptr %98, i32 0, i32 2
  %100 = load i32, ptr %99, align 8
  %101 = getelementptr inbounds %class.Unpack, ptr %6, i32 0, i32 13
  %102 = getelementptr inbounds %struct.UnpackBlockHeader, ptr %101, i32 0, i32 0
  %103 = load i32, ptr %102, align 8
  %104 = add nsw i32 %100, %103
  %105 = sub nsw i32 %104, 1
  %106 = icmp slt i32 %97, %105
  br i1 %106, label %107, label %110

107:                                              ; preds = %95
  %108 = getelementptr inbounds %class.Unpack, ptr %6, i32 0, i32 12
  %109 = load i32, ptr %108, align 4
  br label %119

110:                                              ; preds = %95
  %111 = getelementptr inbounds %class.Unpack, ptr %6, i32 0, i32 13
  %112 = getelementptr inbounds %struct.UnpackBlockHeader, ptr %111, i32 0, i32 2
  %113 = load i32, ptr %112, align 8
  %114 = getelementptr inbounds %class.Unpack, ptr %6, i32 0, i32 13
  %115 = getelementptr inbounds %struct.UnpackBlockHeader, ptr %114, i32 0, i32 0
  %116 = load i32, ptr %115, align 8
  %117 = add nsw i32 %113, %116
  %118 = sub nsw i32 %117, 1
  br label %119

119:                                              ; preds = %110, %107
  %120 = phi i32 [ %109, %107 ], [ %118, %110 ]
  %121 = getelementptr inbounds %class.Unpack, ptr %6, i32 0, i32 12
  store i32 %120, ptr %121, align 4
  br label %122

122:                                              ; preds = %119, %81
  %123 = load i32, ptr %5, align 4
  %124 = icmp ne i32 %123, -1
  store i1 %124, ptr %2, align 1
  br label %125

125:                                              ; preds = %122, %15
  %126 = load i1, ptr %2, align 1
  ret i1 %126
}

; Function Attrs: mustprogress uwtable
define noundef zeroext i1 @_ZN6Unpack15ReadBlockHeaderER8BitInputR17UnpackBlockHeader(ptr noundef nonnull align 8 dereferenceable(59688) %0, ptr noundef nonnull align 8 dereferenceable(24) %1, ptr noundef nonnull align 4 dereferenceable(20) %2) #0 align 2 {
  %4 = alloca i1, align 1
  %5 = alloca ptr, align 8
  %6 = alloca ptr, align 8
  %7 = alloca ptr, align 8
  %8 = alloca i8, align 1
  %9 = alloca i32, align 4
  %10 = alloca i8, align 1
  %11 = alloca i32, align 4
  %12 = alloca i32, align 4
  %13 = alloca i8, align 1
  store ptr %0, ptr %5, align 8
  store ptr %1, ptr %6, align 8
  store ptr %2, ptr %7, align 8
  %14 = load ptr, ptr %5, align 8
  %15 = load ptr, ptr %7, align 8
  %16 = getelementptr inbounds %struct.UnpackBlockHeader, ptr %15, i32 0, i32 3
  store i32 0, ptr %16, align 4
  %17 = load ptr, ptr %6, align 8
  %18 = getelementptr inbounds %class.BitInput, ptr %17, i32 0, i32 2
  %19 = load i8, ptr %18, align 8
  %20 = trunc i8 %19 to i1
  br i1 %20, label %33, label %21

21:                                               ; preds = %3
  %22 = load ptr, ptr %6, align 8
  %23 = getelementptr inbounds %class.BitInput, ptr %22, i32 0, i32 0
  %24 = load i32, ptr %23, align 8
  %25 = getelementptr inbounds %class.Unpack, ptr %14, i32 0, i32 11
  %26 = load i32, ptr %25, align 8
  %27 = sub nsw i32 %26, 7
  %28 = icmp sgt i32 %24, %27
  br i1 %28, label %29, label %33

29:                                               ; preds = %21
  %30 = call noundef zeroext i1 @_ZN6Unpack10UnpReadBufEv(ptr noundef nonnull align 8 dereferenceable(59688) %14)
  br i1 %30, label %32, label %31

31:                                               ; preds = %29
  store i1 false, ptr %4, align 1
  br label %154

32:                                               ; preds = %29
  br label %33

33:                                               ; preds = %32, %21, %3
  %34 = load ptr, ptr %6, align 8
  %35 = load ptr, ptr %6, align 8
  %36 = getelementptr inbounds %class.BitInput, ptr %35, i32 0, i32 1
  %37 = load i32, ptr %36, align 4
  %38 = sub nsw i32 8, %37
  %39 = and i32 %38, 7
  call void @_ZN8BitInput8faddbitsEj(ptr noundef nonnull align 8 dereferenceable(24) %34, i32 noundef %39)
  %40 = load ptr, ptr %6, align 8
  %41 = call noundef i32 @_ZN8BitInput8fgetbitsEv(ptr noundef nonnull align 8 dereferenceable(24) %40)
  %42 = lshr i32 %41, 8
  %43 = trunc i32 %42 to i8
  store i8 %43, ptr %8, align 1
  %44 = load ptr, ptr %6, align 8
  call void @_ZN8BitInput8faddbitsEj(ptr noundef nonnull align 8 dereferenceable(24) %44, i32 noundef 8)
  %45 = load i8, ptr %8, align 1
  %46 = zext i8 %45 to i32
  %47 = ashr i32 %46, 3
  %48 = and i32 %47, 3
  %49 = add nsw i32 %48, 1
  store i32 %49, ptr %9, align 4
  %50 = load i32, ptr %9, align 4
  %51 = icmp eq i32 %50, 4
  br i1 %51, label %52, label %53

52:                                               ; preds = %33
  store i1 false, ptr %4, align 1
  br label %154

53:                                               ; preds = %33
  %54 = load i32, ptr %9, align 4
  %55 = add i32 2, %54
  %56 = load ptr, ptr %7, align 8
  %57 = getelementptr inbounds %struct.UnpackBlockHeader, ptr %56, i32 0, i32 3
  store i32 %55, ptr %57, align 4
  %58 = load i8, ptr %8, align 1
  %59 = zext i8 %58 to i32
  %60 = and i32 %59, 7
  %61 = add nsw i32 %60, 1
  %62 = load ptr, ptr %7, align 8
  %63 = getelementptr inbounds %struct.UnpackBlockHeader, ptr %62, i32 0, i32 1
  store i32 %61, ptr %63, align 4
  %64 = load ptr, ptr %6, align 8
  %65 = call noundef i32 @_ZN8BitInput8fgetbitsEv(ptr noundef nonnull align 8 dereferenceable(24) %64)
  %66 = lshr i32 %65, 8
  %67 = trunc i32 %66 to i8
  store i8 %67, ptr %10, align 1
  %68 = load ptr, ptr %6, align 8
  call void @_ZN8BitInput8faddbitsEj(ptr noundef nonnull align 8 dereferenceable(24) %68, i32 noundef 8)
  store i32 0, ptr %11, align 4
  store i32 0, ptr %12, align 4
  br label %69

69:                                               ; preds = %83, %53
  %70 = load i32, ptr %12, align 4
  %71 = load i32, ptr %9, align 4
  %72 = icmp ult i32 %70, %71
  br i1 %72, label %73, label %86

73:                                               ; preds = %69
  %74 = load ptr, ptr %6, align 8
  %75 = call noundef i32 @_ZN8BitInput8fgetbitsEv(ptr noundef nonnull align 8 dereferenceable(24) %74)
  %76 = lshr i32 %75, 8
  %77 = load i32, ptr %12, align 4
  %78 = mul i32 %77, 8
  %79 = shl i32 %76, %78
  %80 = load i32, ptr %11, align 4
  %81 = add i32 %80, %79
  store i32 %81, ptr %11, align 4
  %82 = load ptr, ptr %6, align 8
  call void @_ZN8BitInput7addbitsEj(ptr noundef nonnull align 8 dereferenceable(24) %82, i32 noundef 8)
  br label %83

83:                                               ; preds = %73
  %84 = load i32, ptr %12, align 4
  %85 = add i32 %84, 1
  store i32 %85, ptr %12, align 4
  br label %69, !llvm.loop !95

86:                                               ; preds = %69
  %87 = load i32, ptr %11, align 4
  %88 = load ptr, ptr %7, align 8
  %89 = getelementptr inbounds %struct.UnpackBlockHeader, ptr %88, i32 0, i32 0
  store i32 %87, ptr %89, align 4
  %90 = load i8, ptr %8, align 1
  %91 = zext i8 %90 to i32
  %92 = xor i32 90, %91
  %93 = load i32, ptr %11, align 4
  %94 = xor i32 %92, %93
  %95 = load i32, ptr %11, align 4
  %96 = ashr i32 %95, 8
  %97 = xor i32 %94, %96
  %98 = load i32, ptr %11, align 4
  %99 = ashr i32 %98, 16
  %100 = xor i32 %97, %99
  %101 = trunc i32 %100 to i8
  store i8 %101, ptr %13, align 1
  %102 = load i8, ptr %13, align 1
  %103 = zext i8 %102 to i32
  %104 = load i8, ptr %10, align 1
  %105 = zext i8 %104 to i32
  %106 = icmp ne i32 %103, %105
  br i1 %106, label %107, label %108

107:                                              ; preds = %86
  store i1 false, ptr %4, align 1
  br label %154

108:                                              ; preds = %86
  %109 = load ptr, ptr %6, align 8
  %110 = getelementptr inbounds %class.BitInput, ptr %109, i32 0, i32 0
  %111 = load i32, ptr %110, align 8
  %112 = load ptr, ptr %7, align 8
  %113 = getelementptr inbounds %struct.UnpackBlockHeader, ptr %112, i32 0, i32 2
  store i32 %111, ptr %113, align 4
  %114 = getelementptr inbounds %class.Unpack, ptr %14, i32 0, i32 12
  %115 = load i32, ptr %114, align 4
  %116 = load ptr, ptr %7, align 8
  %117 = getelementptr inbounds %struct.UnpackBlockHeader, ptr %116, i32 0, i32 2
  %118 = load i32, ptr %117, align 4
  %119 = load ptr, ptr %7, align 8
  %120 = getelementptr inbounds %struct.UnpackBlockHeader, ptr %119, i32 0, i32 0
  %121 = load i32, ptr %120, align 4
  %122 = add nsw i32 %118, %121
  %123 = sub nsw i32 %122, 1
  %124 = icmp slt i32 %115, %123
  br i1 %124, label %125, label %128

125:                                              ; preds = %108
  %126 = getelementptr inbounds %class.Unpack, ptr %14, i32 0, i32 12
  %127 = load i32, ptr %126, align 4
  br label %137

128:                                              ; preds = %108
  %129 = load ptr, ptr %7, align 8
  %130 = getelementptr inbounds %struct.UnpackBlockHeader, ptr %129, i32 0, i32 2
  %131 = load i32, ptr %130, align 4
  %132 = load ptr, ptr %7, align 8
  %133 = getelementptr inbounds %struct.UnpackBlockHeader, ptr %132, i32 0, i32 0
  %134 = load i32, ptr %133, align 4
  %135 = add nsw i32 %131, %134
  %136 = sub nsw i32 %135, 1
  br label %137

137:                                              ; preds = %128, %125
  %138 = phi i32 [ %127, %125 ], [ %136, %128 ]
  %139 = getelementptr inbounds %class.Unpack, ptr %14, i32 0, i32 12
  store i32 %138, ptr %139, align 4
  %140 = load i8, ptr %8, align 1
  %141 = zext i8 %140 to i32
  %142 = and i32 %141, 64
  %143 = icmp ne i32 %142, 0
  %144 = load ptr, ptr %7, align 8
  %145 = getelementptr inbounds %struct.UnpackBlockHeader, ptr %144, i32 0, i32 4
  %146 = zext i1 %143 to i8
  store i8 %146, ptr %145, align 4
  %147 = load i8, ptr %8, align 1
  %148 = zext i8 %147 to i32
  %149 = and i32 %148, 128
  %150 = icmp ne i32 %149, 0
  %151 = load ptr, ptr %7, align 8
  %152 = getelementptr inbounds %struct.UnpackBlockHeader, ptr %151, i32 0, i32 5
  %153 = zext i1 %150 to i8
  store i8 %153, ptr %152, align 1
  store i1 true, ptr %4, align 1
  br label %154

154:                                              ; preds = %137, %107, %52, %31
  %155 = load i1, ptr %4, align 1
  ret i1 %155
}