; Function Attrs: mustprogress uwtable
define noundef zeroext i1 @_ZN6Unpack15ReadBlockHeaderER8BitInputR17UnpackBlockHeader(ptr nocapture noundef nonnull align 8 dereferenceable(59688) %0, ptr noundef nonnull align 8 dereferenceable(24) %1, ptr nocapture noundef nonnull writeonly align 4 dereferenceable(20) %2) local_unnamed_addr #0 align 2 {
  %4 = getelementptr inbounds i8, ptr %2, i64 12
  store i32 0, ptr %4, align 4
  %5 = getelementptr inbounds i8, ptr %1, i64 8
  %6 = load i8, ptr %5, align 8
  %7 = trunc i8 %6 to i1
  br i1 %7, label %55, label %8

8:                                                ; preds = %3
  %9 = load i32, ptr %1, align 8
  %10 = getelementptr inbounds i8, ptr %0, i64 176
  %11 = load i32, ptr %10, align 8
  %12 = add nsw i32 %11, -7
  %13 = icmp sgt i32 %9, %12
  br i1 %13, label %14, label %55

14:                                               ; preds = %8
  %15 = getelementptr inbounds i8, ptr %0, i64 8
  %16 = load i32, ptr %15, align 8
  %17 = sub nsw i32 %11, %16
  %18 = icmp slt i32 %17, 0
  br i1 %18, label %_ZN6Unpack10UnpReadBufEv.exit.thread, label %19

19:                                               ; preds = %14
  %20 = getelementptr inbounds i8, ptr %0, i64 184
  %21 = getelementptr inbounds i8, ptr %0, i64 192
  %22 = load i32, ptr %21, align 8
  %.neg.i = sub i32 %22, %16
  %23 = load i32, ptr %20, align 8
  %24 = add i32 %.neg.i, %23
  store i32 %24, ptr %20, align 8
  %25 = icmp sgt i32 %16, 16384
  br i1 %25, label %26, label %34

26:                                               ; preds = %19
  %.not.i = icmp eq i32 %17, 0
  br i1 %.not.i, label %33, label %27

27:                                               ; preds = %26
  %28 = getelementptr inbounds i8, ptr %0, i64 24
  %29 = load ptr, ptr %28, align 8
  %30 = zext nneg i32 %16 to i64
  %31 = getelementptr inbounds i8, ptr %29, i64 %30
  %32 = zext nneg i32 %17 to i64
  tail call void @llvm.memmove.p0.p0.i64(ptr align 1 %29, ptr nonnull align 1 %31, i64 %32, i1 false)
  br label %33

33:                                               ; preds = %27, %26
  store i32 0, ptr %15, align 8
  store i32 %17, ptr %10, align 8
  br label %34

34:                                               ; preds = %33, %19
  %.011.i = phi i32 [ %17, %33 ], [ %11, %19 ]
  %.not18.i = icmp eq i32 %.011.i, 32768
  br i1 %.not18.i, label %.thread.i, label %35

35:                                               ; preds = %34
  %36 = load ptr, ptr %0, align 8
  %37 = getelementptr inbounds i8, ptr %0, i64 24
  %38 = load ptr, ptr %37, align 8
  %39 = sext i32 %.011.i to i64
  %40 = getelementptr inbounds i8, ptr %38, i64 %39
  %41 = sub nsw i32 32768, %.011.i
  %42 = sext i32 %41 to i64
  %43 = tail call noundef i32 @_ZN11ComprDataIO7UnpReadEPhm(ptr noundef nonnull align 8 dereferenceable(266) %36, ptr noundef %40, i64 noundef %42)
  %44 = icmp sgt i32 %43, 0
  %.pre.i = load i32, ptr %10, align 8
  br i1 %44, label %45, label %.thread.i

45:                                               ; preds = %35
  %46 = add nsw i32 %.pre.i, %43
  store i32 %46, ptr %10, align 8
  br label %.thread.i

.thread.i:                                        ; preds = %45, %35, %34
  %47 = phi i32 [ %46, %45 ], [ %.pre.i, %35 ], [ 32768, %34 ]
  %.021.i = phi i32 [ %43, %45 ], [ %43, %35 ], [ 0, %34 ]
  %48 = add nsw i32 %47, -30
  %49 = getelementptr inbounds i8, ptr %0, i64 180
  store i32 %48, ptr %49, align 4
  %50 = load i32, ptr %15, align 8
  store i32 %50, ptr %21, align 8
  %51 = load i32, ptr %20, align 8
  %.not19.i = icmp eq i32 %51, -1
  br i1 %.not19.i, label %_ZN6Unpack10UnpReadBufEv.exit, label %52

52:                                               ; preds = %.thread.i
  %53 = add i32 %50, -1
  %54 = add i32 %53, %51
  %..i = tail call i32 @llvm.smin.i32(i32 %48, i32 %54)
  store i32 %..i, ptr %49, align 4
  br label %_ZN6Unpack10UnpReadBufEv.exit

_ZN6Unpack10UnpReadBufEv.exit:                    ; preds = %.thread.i, %52
  %.not48 = icmp eq i32 %.021.i, -1
  br i1 %.not48, label %_ZN6Unpack10UnpReadBufEv.exit.thread, label %55

55:                                               ; preds = %_ZN6Unpack10UnpReadBufEv.exit, %8, %3
  %56 = getelementptr inbounds i8, ptr %1, i64 4
  %57 = load i32, ptr %56, align 4
  %58 = sub i32 0, %57
  %59 = and i32 %58, 7
  tail call void @_ZN8BitInput8faddbitsEj(ptr noundef nonnull align 8 dereferenceable(24) %1, i32 noundef %59)
  %60 = tail call noundef i32 @_ZN8BitInput8fgetbitsEv(ptr noundef nonnull align 8 dereferenceable(24) %1)
  %61 = lshr i32 %60, 8
  tail call void @_ZN8BitInput8faddbitsEj(ptr noundef nonnull align 8 dereferenceable(24) %1, i32 noundef 8)
  %62 = lshr i32 %60, 11
  %63 = and i32 %62, 3
  %64 = icmp eq i32 %63, 3
  br i1 %64, label %_ZN6Unpack10UnpReadBufEv.exit.thread, label %65

65:                                               ; preds = %55
  %66 = add nuw nsw i32 %63, 3
  store i32 %66, ptr %4, align 4
  %67 = and i32 %61, 7
  %68 = add nuw nsw i32 %67, 1
  %69 = getelementptr inbounds i8, ptr %2, i64 4
  store i32 %68, ptr %69, align 4
  %70 = tail call noundef i32 @_ZN8BitInput8fgetbitsEv(ptr noundef nonnull align 8 dereferenceable(24) %1)
  tail call void @_ZN8BitInput8faddbitsEj(ptr noundef nonnull align 8 dereferenceable(24) %1, i32 noundef 8)
  br label %71

71:                                               ; preds = %65, %71
  %.04150 = phi i32 [ 0, %65 ], [ %83, %71 ]
  %.04249 = phi i32 [ 0, %65 ], [ %76, %71 ]
  %72 = tail call noundef i32 @_ZN8BitInput8fgetbitsEv(ptr noundef nonnull align 8 dereferenceable(24) %1)
  %73 = lshr i32 %72, 8
  %74 = shl nuw nsw i32 %.04150, 3
  %75 = shl i32 %73, %74
  %76 = add i32 %75, %.04249
  %77 = load i32, ptr %56, align 4
  %78 = add i32 %77, 8
  %79 = lshr i32 %78, 3
  %80 = load i32, ptr %1, align 8
  %81 = add i32 %79, %80
  store i32 %81, ptr %1, align 8
  %82 = and i32 %77, 7
  store i32 %82, ptr %56, align 4
  %83 = add nuw nsw i32 %.04150, 1
  %exitcond.not = icmp eq i32 %.04150, %63
  br i1 %exitcond.not, label %84, label %71, !llvm.loop !98

84:                                               ; preds = %71
  store i32 %76, ptr %2, align 4
  %85 = lshr i32 %76, 16
  %86 = xor i32 %76, %70
  %87 = lshr i32 %86, 8
  %88 = xor i32 %85, %87
  %89 = xor i32 %88, %61
  %90 = xor i32 %89, %76
  %91 = and i32 %90, 255
  %.not46 = icmp eq i32 %91, 90
  br i1 %.not46, label %92, label %_ZN6Unpack10UnpReadBufEv.exit.thread

92:                                               ; preds = %84
  %93 = load i32, ptr %1, align 8
  %94 = getelementptr inbounds i8, ptr %2, i64 8
  store i32 %93, ptr %94, align 4
  %95 = getelementptr inbounds i8, ptr %0, i64 180
  %96 = load i32, ptr %95, align 4
  %97 = add i32 %76, -1
  %98 = add i32 %97, %93
  %. = tail call i32 @llvm.smin.i32(i32 %96, i32 %98)
  store i32 %., ptr %95, align 4
  %99 = getelementptr inbounds i8, ptr %2, i64 16
  %100 = lshr i32 %60, 14
  %101 = trunc i32 %100 to i8
  %102 = and i8 %101, 1
  store i8 %102, ptr %99, align 4
  %103 = getelementptr inbounds i8, ptr %2, i64 17
  %104 = lshr i32 %60, 15
  %105 = trunc i32 %104 to i8
  %106 = and i8 %105, 1
  store i8 %106, ptr %103, align 1
  br label %_ZN6Unpack10UnpReadBufEv.exit.thread

_ZN6Unpack10UnpReadBufEv.exit.thread:             ; preds = %14, %84, %55, %_ZN6Unpack10UnpReadBufEv.exit, %92
  %.0 = phi i1 [ true, %92 ], [ false, %_ZN6Unpack10UnpReadBufEv.exit ], [ false, %55 ], [ false, %84 ], [ false, %14 ]
  ret i1 %.0
}